; Function Attrs: nounwind uwtable
define hidden noundef ptr @php_dom_libxml_notation_iter(ptr noundef %0, i32 noundef %1) local_unnamed_addr #0 {
  %3 = tail call i32 @xmlHashSize(ptr noundef %0) #8
  %4 = icmp sgt i32 %3, 0
  %5 = icmp sgt i32 %3, %1
  %or.cond = and i1 %4, %5
  br i1 %or.cond, label %6, label %28

6:                                                ; preds = %2
  %7 = tail call noalias ptr @_emalloc_16() #8
  store i32 0, ptr %7, align 8
  %8 = getelementptr inbounds i8, ptr %7, i64 4
  store i32 %1, ptr %8, align 4
  %9 = getelementptr inbounds i8, ptr %7, i64 8
  store ptr null, ptr %9, align 8
  tail call void @xmlHashScan(ptr noundef %0, ptr noundef nonnull @itemHashScanner, ptr noundef nonnull %7) #8
  %10 = load ptr, ptr %9, align 8
  tail call void @_efree(ptr noundef nonnull %7) #8
  %11 = load ptr, ptr %10, align 8
  %12 = getelementptr inbounds i8, ptr %10, i64 8
  %13 = load ptr, ptr %12, align 8
  %14 = getelementptr inbounds i8, ptr %10, i64 16
  %15 = load ptr, ptr %14, align 8
  %16 = load ptr, ptr @xmlMalloc, align 8
  %17 = tail call ptr %16(i64 noundef 136) #8
  tail call void @llvm.memset.p0.i64(ptr noundef nonnull align 8 dereferenceable(136) %17, i8 0, i64 136, i1 false)
  %18 = getelementptr inbounds i8, ptr %17, i64 8
  store i32 12, ptr %18, align 8
  %19 = tail call ptr @xmlStrdup(ptr noundef %11) #8
  %20 = getelementptr inbounds i8, ptr %17, i64 16
  store ptr %19, ptr %20, align 8
  %21 = tail call ptr @xmlStrdup(ptr noundef %13) #8
  %22 = getelementptr inbounds i8, ptr %17, i64 96
  store ptr %21, ptr %22, align 8
  %23 = tail call ptr @xmlStrdup(ptr noundef %15) #8
  %24 = getelementptr inbounds i8, ptr %17, i64 104
  store ptr %23, ptr %24, align 8
  %25 = getelementptr inbounds i8, ptr %17, i64 120
  store ptr null, ptr %25, align 8
  %26 = getelementptr inbounds i8, ptr %17, i64 24
  store ptr null, ptr %17, align 8
  %27 = getelementptr inbounds i8, ptr %17, i64 56
  tail call void @llvm.memset.p0.i64(ptr noundef nonnull align 8 dereferenceable(24) %26, i8 0, i64 24, i1 false)
  tail call void @llvm.memset.p0.i64(ptr noundef nonnull align 8 dereferenceable(36) %27, i8 0, i64 36, i1 false)
  br label %28

28:                                               ; preds = %2, %6
  %.0 = phi ptr [ %17, %6 ], [ null, %2 ]
  ret ptr %.0
}